; Function Attrs: mustprogress uwtable
define noalias noundef ptr @_ZN5boost3log11v2_mt_posix9attribute4implnwEm(i64 noundef %0) local_unnamed_addr #0 align 2 {
  %2 = tail call noalias ptr @malloc(i64 noundef %0) #12
  %.not.i = icmp eq ptr %2, null
  br i1 %.not.i, label %3, label %_ZN5boost3log11v2_mt_posix3aux19stateless_allocatorIhE8allocateEmPKv.exit

3:                                                ; preds = %1
  %4 = tail call ptr @__cxa_allocate_exception(i64 8) #13
  store ptr getelementptr inbounds inrange(-16, 24) (i8, ptr @_ZTVSt9bad_alloc, i64 16), ptr %4, align 8, !tbaa !3
  tail call void @__cxa_throw(ptr nonnull %4, ptr nonnull @_ZTISt9bad_alloc, ptr nonnull @_ZNSt9bad_allocD1Ev) #14
  unreachable

_ZN5boost3log11v2_mt_posix3aux19stateless_allocatorIhE8allocateEmPKv.exit: ; preds = %1
  ret ptr %2
}